(dp1
S'neonatal death'
p2
(dp3
I0
I0
sI1
I0
sI2
I2637
sI3
I2005
sI4
I1455
sI5
I1019
sI6
I793
sI7
I601
sI8
I428
sI9
I304
sI10
I217
ssS'cured'
p4
(dp5
I0
I0
sI1
I0
sI2
I1
sI3
I32
sI4
I66
sI5
I110
sI6
I132
sI7
I170
sI8
I193
sI9
I214
sI10
I229
ssS'hbv death'
p6
(dp7
I0
I0
sI1
I0
sI2
I82
sI3
I191
sI4
I216
sI5
I226
sI6
I215
sI7
I198
sI8
I159
sI9
I137
sI10
I112
ssS'healthy'
p8
(dp9
I0
I0
sI1
I70462
sI2
I120122
sI3
I153504
sI4
I175805
sI5
I189736
sI6
I197432
sI7
I200969
sI8
I201531
sI9
I199816
sI10
I196664
ssS'child death'
p10
(dp11
I0
I0
sI1
I0
sI2
I0
sI3
I2556
sI4
I4358
sI5
I5552
sI6
I4161
sI7
I3059
sI8
I2101
sI9
I1585
sI10
I1161
ssS'dead'
p12
(dp13
I0
I0
sI1
I1681
sI2
I1286
sI3
I923
sI4
I688
sI5
I480
sI6
I2668
sI7
I4088
sI8
I5159
sI9
I5863
sI10
I6237
ssS'susceptible'
p14
(dp15
I0
I0
sI1
I505
sI2
I645
sI3
I669
sI4
I686
sI5
I614
sI6
I562
sI7
I486
sI8
I433
sI9
I365
sI10
I311
ssS'infected'
p16
(dp17
I0
I0
sI1
I261
sI2
I561
sI3
I670
sI4
I683
sI5
I624
sI6
I555
sI7
I467
sI8
I394
sI9
I351
sI10
I297
ss.