(dp1
S'neonatal death'
p2
(dp3
I0
I0
sI1
I0
sI2
I2712
sI3
I1930
sI4
I1473
sI5
I1109
sI6
I795
sI7
I554
sI8
I435
sI9
I322
sI10
I223
ssS'cured'
p4
(dp5
I0
I0
sI1
I0
sI2
I1
sI3
I19
sI4
I55
sI5
I82
sI6
I118
sI7
I154
sI8
I185
sI9
I203
sI10
I215
ssS'hbv death'
p6
(dp7
I0
I0
sI1
I0
sI2
I96
sI3
I198
sI4
I216
sI5
I247
sI6
I209
sI7
I172
sI8
I163
sI9
I149
sI10
I106
ssS'healthy'
p8
(dp9
I0
I0
sI1
I71227
sI2
I120448
sI3
I154052
sI4
I176309
sI5
I190100
sI6
I197990
sI7
I201759
sI8
I202330
sI9
I200569
sI10
I197471
ssS'child death'
p10
(dp11
I0
I0
sI1
I0
sI2
I0
sI3
I2589
sI4
I4299
sI5
I5587
sI6
I4140
sI7
I3042
sI8
I2143
sI9
I1588
sI10
I1171
ssS'dead'
p12
(dp13
I0
I0
sI1
I1725
sI2
I1192
sI3
I981
sI4
I694
sI5
I503
sI6
I2634
sI7
I4130
sI8
I5230
sI9
I5862
sI10
I6213
ssS'susceptible'
p14
(dp15
I0
I0
sI1
I524
sI2
I659
sI3
I743
sI4
I713
sI5
I673
sI6
I611
sI7
I537
sI8
I475
sI9
I406
sI10
I336
ssS'infected'
p16
(dp17
I0
I0
sI1
I296
sI2
I589
sI3
I669
sI4
I684
sI5
I621
sI6
I554
sI7
I505
sI8
I422
sI9
I345
sI10
I312
ss.