(dp1
S'neonatal death'
p2
(dp3
I0
I0
sI1
I0
sI2
I5192
sI3
I5052
sI4
I4869
sI5
I4693
sI6
I4597
sI7
I4386
sI8
I4255
sI9
I4199
sI10
I4080
ssS'cured'
p4
(dp5
I0
I0
sI1
I0
sI2
I4
sI3
I33
sI4
I65
sI5
I133
sI6
I211
sI7
I279
sI8
I322
sI9
I385
sI10
I441
ssS'hbv death'
p6
(dp7
I0
I0
sI1
I0
sI2
I82
sI3
I275
sI4
I329
sI5
I396
sI6
I412
sI7
I456
sI8
I445
sI9
I393
sI10
I387
ssS'healthy'
p8
(dp9
I0
I0
sI1
I70744
sI2
I133872
sI3
I192367
sI4
I247293
sI5
I298329
sI6
I345413
sI7
I388568
sI8
I428501
sI9
I465514
sI10
I499522
ssS'child death'
p10
(dp11
I0
I0
sI1
I0
sI2
I0
sI3
I2568
sI4
I4824
sI5
I6999
sI6
I6479
sI7
I6409
sI8
I6377
sI9
I6022
sI10
I5857
ssS'dead'
p12
(dp13
I0
I0
sI1
I1661
sI2
I1704
sI3
I1610
sI4
I1572
sI5
I1533
sI6
I3800
sI7
I5772
sI8
I7698
sI9
I9437
sI10
I10859
ssS'susceptible'
p14
(dp15
I0
I0
sI1
I526
sI2
I619
sI3
I720
sI4
I789
sI5
I812
sI6
I848
sI7
I877
sI8
I871
sI9
I871
sI10
I841
ssS'infected'
p16
(dp17
I0
I0
sI1
I262
sI2
I800
sI3
I1050
sI4
I1226
sI5
I1287
sI6
I1278
sI7
I1209
sI8
I1153
sI9
I1117
sI10
I1105
ss.