(dp1
S'neonatal death'
p2
(dp3
I0
I0
sI1
I0
sI2
I253
sI3
I185
sI4
I157
sI5
I129
sI6
I79
sI7
I58
sI8
I29
sI9
I36
sI10
I12
ssS'cured'
p4
(dp5
I0
I0
sI1
I0
sI2
I0
sI3
I4
sI4
I8
sI5
I14
sI6
I15
sI7
I16
sI8
I21
sI9
I23
sI10
I20
ssS'hbv death'
p6
(dp7
I0
I0
sI1
I0
sI2
I9
sI3
I17
sI4
I21
sI5
I18
sI6
I21
sI7
I19
sI8
I15
sI9
I13
sI10
I14
ssS'healthy'
p8
(dp9
I0
I0
sI1
I7011
sI2
I11961
sI3
I15286
sI4
I17471
sI5
I18777
sI6
I19568
sI7
I19982
sI8
I20066
sI9
I19906
sI10
I19606
ssS'child death'
p10
(dp11
I0
I0
sI1
I0
sI2
I0
sI3
I255
sI4
I462
sI5
I558
sI6
I452
sI7
I274
sI8
I224
sI9
I170
sI10
I122
ssS'dead'
p12
(dp13
I0
I0
sI1
I181
sI2
I126
sI3
I74
sI4
I62
sI5
I72
sI6
I243
sI7
I398
sI8
I541
sI9
I567
sI10
I610
ssS'susceptible'
p14
(dp15
I0
I0
sI1
I48
sI2
I55
sI3
I66
sI4
I76
sI5
I71
sI6
I66
sI7
I54
sI8
I48
sI9
I36
sI10
I29
ssS'infected'
p16
(dp17
I0
I0
sI1
I27
sI2
I56
sI3
I58
sI4
I53
sI5
I55
sI6
I52
sI7
I44
sI8
I38
sI9
I40
sI10
I31
ss.