(dp1
S'cured'
p2
(dp3
I0
I25000
sI1
I43552
sI2
I91052
sI3
I132438
sI4
I163898
sI5
I186528
sI6
I202286
sI7
I212985
sI8
I219297
sI9
I222459
sI10
I223138
ssS'healthy'
p4
(dp5
I0
I500000
sI1
I484486
sI2
I469336
sI3
I454448
sI4
I440272
sI5
I426412
sI6
I413119
sI7
I400100
sI8
I387548
sI9
I375526
sI10
I363712
ssS'dead'
p6
(dp7
I0
I0
sI1
I26419
sI2
I25758
sI3
I24992
sI4
I23890
sI5
I23439
sI6
I22371
sI7
I21877
sI8
I21184
sI9
I20504
sI10
I20001
ssS'susceptible'
p8
(dp9
I0
I300000
sI1
I232380
sI2
I180053
sI3
I139851
sI4
I108284
sI5
I83881
sI6
I65014
sI7
I50275
sI8
I39042
sI9
I30189
sI10
I23323
ssS'infected'
p10
(dp11
I0
I25000
sI1
I62988
sI2
I57026
sI3
I45564
sI4
I35806
sI5
I27850
sI6
I21753
sI7
I16793
sI8
I12945
sI9
I10006
sI10
I7885
ssS'maternal death'
p12
(dp13
I0
I0
sI1
I175
sI2
I181
sI3
I174
sI4
I151
sI5
I150
sI6
I128
sI7
I142
sI8
I137
sI9
I148
sI10
I121
ss.