(dp1
S'cured'
p2
(dp3
I0
I25000
sI1
I33081
sI2
I52313
sI3
I57665
sI4
I54271
sI5
I46878
sI6
I38459
sI7
I30600
sI8
I23859
sI9
I18203
sI10
I13939
ssS'healthy'
p4
(dp5
I0
I500000
sI1
I366482
sI2
I268549
sI3
I196941
sI4
I144673
sI5
I105825
sI6
I77610
sI7
I57266
sI8
I42267
sI9
I31110
sI10
I22777
ssS'dead'
p6
(dp7
I0
I0
sI1
I226691
sI2
I166645
sI3
I121687
sI4
I88597
sI5
I65645
sI6
I47877
sI7
I34975
sI8
I25708
sI9
I19180
sI10
I13977
ssS'susceptible'
p8
(dp9
I0
I300000
sI1
I175941
sI2
I102955
sI3
I60302
sI4
I35335
sI5
I20761
sI6
I12276
sI7
I7211
sI8
I4199
sI9
I2414
sI10
I1423
ssS'infected'
p10
(dp11
I0
I25000
sI1
I47677
sI2
I32638
sI3
I19789
sI4
I11767
sI5
I6901
sI6
I4113
sI7
I2390
sI8
I1420
sI9
I831
sI10
I437
ssS'maternal death'
p12
(dp13
I0
I0
sI1
I128
sI2
I81
sI3
I71
sI4
I54
sI5
I36
sI6
I30
sI7
I16
sI8
I14
sI9
I7
sI10
I5
ss.