(dp1
S'cured'
p2
(dp3
I0
I25000
sI1
I32971
sI2
I52155
sI3
I57237
sI4
I53465
sI5
I46112
sI6
I38158
sI7
I30309
sI8
I23759
sI9
I18170
sI10
I13834
ssS'healthy'
p4
(dp5
I0
I500000
sI1
I366808
sI2
I268433
sI3
I196620
sI4
I144466
sI5
I106111
sI6
I77830
sI7
I57001
sI8
I41653
sI9
I30417
sI10
I22140
ssS'dead'
p6
(dp7
I0
I0
sI1
I226293
sI2
I166372
sI3
I121306
sI4
I88698
sI5
I64873
sI6
I47681
sI7
I35239
sI8
I25721
sI9
I19013
sI10
I13984
ssS'susceptible'
p8
(dp9
I0
I300000
sI1
I176054
sI2
I103277
sI3
I60778
sI4
I35526
sI5
I20823
sI6
I12185
sI7
I7079
sI8
I4218
sI9
I2475
sI10
I1406
ssS'infected'
p10
(dp11
I0
I25000
sI1
I47744
sI2
I32539
sI3
I19859
sI4
I11901
sI5
I7118
sI6
I4096
sI7
I2464
sI8
I1380
sI9
I833
sI10
I466
ssS'maternal death'
p12
(dp13
I0
I0
sI1
I130
sI2
I801
sI3
I604
sI4
I438
sI5
I321
sI6
I214
sI7
I177
sI8
I122
sI9
I102
sI10
I65
ss.