(dp1
S'cured'
p2
(dp3
I0
I2500
sI1
I3275
sI2
I5282
sI3
I5797
sI4
I5468
sI5
I4759
sI6
I3975
sI7
I3149
sI8
I2407
sI9
I1851
sI10
I1353
ssS'healthy'
p4
(dp5
I0
I50000
sI1
I36512
sI2
I26749
sI3
I19594
sI4
I14396
sI5
I10536
sI6
I7705
sI7
I5689
sI8
I4134
sI9
I3101
sI10
I2289
ssS'dead'
p6
(dp7
I0
I0
sI1
I22836
sI2
I16409
sI3
I12158
sI4
I8836
sI5
I6513
sI6
I4736
sI7
I3477
sI8
I2679
sI9
I1790
sI10
I1442
ssS'susceptible'
p8
(dp9
I0
I30000
sI1
I17610
sI2
I10288
sI3
I6098
sI4
I3499
sI5
I2059
sI6
I1217
sI7
I704
sI8
I411
sI9
I231
sI10
I139
ssS'infected'
p10
(dp11
I0
I2500
sI1
I4750
sI2
I3330
sI3
I1944
sI4
I1203
sI5
I660
sI6
I363
sI7
I227
sI8
I120
sI9
I91
sI10
I48
ssS'maternal death'
p12
(dp13
I0
I0
sI1
I17
sI2
I89
sI3
I58
sI4
I31
sI5
I39
sI6
I18
sI7
I14
sI8
I18
sI9
I8
sI10
I3
ss.